; Function Attrs: mustprogress uwtable
define internal void @_ZN8pybind116class_IN12_GLOBAL__N_110MyObject4aEJSt10unique_ptrIS2_NS_8nodeleteEEEE7deallocERNS_6detail16value_and_holderE(ptr nocapture noundef nonnull readonly align 8 dereferenceable(32) %0) #1 align 2 personality ptr @__gxx_personality_v0 {
  %2 = alloca %"struct.pybind11::error_scope", align 8
  %3 = getelementptr inbounds i8, ptr %2, i64 8
  %4 = getelementptr inbounds i8, ptr %2, i64 16
  call void @PyErr_Fetch(ptr noundef nonnull %2, ptr noundef nonnull %3, ptr noundef nonnull %4)
  %5 = load ptr, ptr %0, align 8
  %6 = getelementptr inbounds i8, ptr %5, i64 48
  %7 = load i8, ptr %6, align 8
  %8 = and i8 %7, 2
  %.not.i = icmp eq i8 %8, 0
  br i1 %.not.i, label %11, label %9

9:                                                ; preds = %1
  %10 = and i8 %7, 4
  br label %_ZNK8pybind116detail16value_and_holder18holder_constructedEv.exit

11:                                               ; preds = %1
  %12 = getelementptr inbounds i8, ptr %5, i64 24
  %13 = load ptr, ptr %12, align 8
  %14 = getelementptr inbounds i8, ptr %0, i64 8
  %15 = load i64, ptr %14, align 8
  %16 = getelementptr inbounds i8, ptr %13, i64 %15
  %17 = load i8, ptr %16, align 1
  %18 = and i8 %17, 1
  br label %_ZNK8pybind116detail16value_and_holder18holder_constructedEv.exit

_ZNK8pybind116detail16value_and_holder18holder_constructedEv.exit: ; preds = %9, %11
  %.in.i = phi i8 [ %10, %9 ], [ %18, %11 ]
  %.not = icmp eq i8 %.in.i, 0
  %19 = getelementptr inbounds i8, ptr %0, i64 24
  %.val7 = load ptr, ptr %19, align 8
  br i1 %.not, label %36, label %20

20:                                               ; preds = %_ZNK8pybind116detail16value_and_holder18holder_constructedEv.exit
  %21 = getelementptr inbounds i8, ptr %.val7, i64 8
  store ptr null, ptr %21, align 8
  %22 = load ptr, ptr %0, align 8
  %23 = getelementptr inbounds i8, ptr %22, i64 48
  %24 = load i8, ptr %23, align 8
  %25 = and i8 %24, 2
  %.not.i8 = icmp eq i8 %25, 0
  br i1 %.not.i8, label %28, label %26

26:                                               ; preds = %20
  %27 = and i8 %24, -5
  store i8 %27, ptr %23, align 8
  br label %_ZN8pybind116detail16value_and_holder22set_holder_constructedEb.exit

28:                                               ; preds = %20
  %29 = getelementptr inbounds i8, ptr %22, i64 24
  %30 = load ptr, ptr %29, align 8
  %31 = getelementptr inbounds i8, ptr %0, i64 8
  %32 = load i64, ptr %31, align 8
  %33 = getelementptr inbounds i8, ptr %30, i64 %32
  %34 = load i8, ptr %33, align 1
  %35 = and i8 %34, -2
  store i8 %35, ptr %33, align 1
  br label %_ZN8pybind116detail16value_and_holder22set_holder_constructedEb.exit

36:                                               ; preds = %_ZNK8pybind116detail16value_and_holder18holder_constructedEv.exit
  %37 = load ptr, ptr %.val7, align 8
  %38 = getelementptr inbounds i8, ptr %0, i64 16
  %39 = load ptr, ptr %38, align 8
  %40 = getelementptr inbounds i8, ptr %39, i64 24
  %41 = load i64, ptr %40, align 8
  %42 = icmp ugt i64 %41, 16
  br i1 %42, label %43, label %44

43:                                               ; preds = %36
  call void @_ZdlPvSt11align_val_t(ptr noundef %37, i64 noundef %41) #28
  br label %_ZN8pybind116detail16value_and_holder22set_holder_constructedEb.exit

44:                                               ; preds = %36
  call void @_ZdlPv(ptr noundef %37) #28
  br label %_ZN8pybind116detail16value_and_holder22set_holder_constructedEb.exit

_ZN8pybind116detail16value_and_holder22set_holder_constructedEb.exit: ; preds = %44, %43, %28, %26
  %45 = getelementptr inbounds i8, ptr %0, i64 24
  %46 = load ptr, ptr %45, align 8
  store ptr null, ptr %46, align 8
  %47 = load ptr, ptr %2, align 8
  %48 = load ptr, ptr %3, align 8
  %49 = load ptr, ptr %4, align 8
  invoke void @PyErr_Restore(ptr noundef %47, ptr noundef %48, ptr noundef %49)
          to label %_ZN8pybind1111error_scopeD2Ev.exit unwind label %50

50:                                               ; preds = %_ZN8pybind116detail16value_and_holder22set_holder_constructedEb.exit
  %51 = landingpad { ptr, i32 }
          catch ptr null
  %52 = extractvalue { ptr, i32 } %51, 0
  call void @__clang_call_terminate(ptr %52) #29
  unreachable

_ZN8pybind1111error_scopeD2Ev.exit:               ; preds = %_ZN8pybind116detail16value_and_holder22set_holder_constructedEb.exit
  ret void
}